(dp0
S'engine'
p1
S'pdflatex'
p2
sS'packages'
p3
c__builtin__
set
p4
((lp5
tp6
Rp7
sS'files_with_guttermarks'
p8
g4
((lp9
S'/Users/meppe/svn/coinvent/Amalgamation/examples/./PerfectAndPhrygianToBackdoor.pp.tex'
p10
aS'PerfectAndPhrygianToBackdoor.pp.tex'
p11
aS'/Users/meppe/svn/coinvent/Amalgamation/examples/PerfectAndPhrygianToBackdoor.pp.tex'
p12
atp13
Rp14
sS'synctex'
p15
I01
s.